target datalayout = "e-m:e-p270:32:32-p271:32:32-p272:64:64-i64:64-i128:128-f80:128-n8:16:32:64-S128"
target triple = "x86_64-pc-linux-gnu"

%struct.sio_par = type { i32, i32, i32, i32, i32, i32, i32, i32, i32, i32, i32, i32, [3 x i32], i32 }
%struct.PaSndioStream = type { %struct.PaUtilStreamRepresentation, %struct.PaUtilBufferProcessor, ptr, %struct.sio_par, i32, i32, i32, i64, ptr, ptr, i64, i64, i64 }
%struct.PaUtilStreamRepresentation = type { i64, ptr, ptr, ptr, ptr, ptr, %struct.PaStreamInfo }
%struct.PaStreamInfo = type { i32, double, double, double }
%struct.PaUtilBufferProcessor = type { i64, i64, i32, i32, i32, i32, i64, i32, i32, i32, i32, ptr, ptr, i32, i32, i32, i32, ptr, ptr, i64, i64, ptr, ptr, i64, ptr, ptr, i64, ptr, i64, i32, [2 x i64], [2 x ptr], i32, [2 x i64], [2 x ptr], %struct.PaUtilTriangularDitherGenerator, double, ptr, ptr }
%struct.PaUtilTriangularDitherGenerator = type { i32, i32, i32 }

; Function Attrs: nounwind uwtable
define internal i32 @StartStream(ptr noundef %0) #0 {
  %2 = alloca i32, align 4
  %3 = alloca ptr, align 8
  %4 = alloca ptr, align 8
  %5 = alloca i32, align 4
  %6 = alloca i32, align 4
  %7 = alloca i32, align 4
  store ptr %0, ptr %3, align 8
  %8 = load ptr, ptr %3, align 8
  store ptr %8, ptr %4, align 8
  %9 = load ptr, ptr %4, align 8
  %10 = getelementptr inbounds nuw %struct.PaSndioStream, ptr %9, i32 0, i32 5
  %11 = load i32, ptr %10, align 4
  %12 = icmp ne i32 %11, 0
  br i1 %12, label %14, label %13

13:                                               ; preds = %1
  store i32 0, ptr %2, align 4
  br label %105

14:                                               ; preds = %1
  %15 = load ptr, ptr %4, align 8
  %16 = getelementptr inbounds nuw %struct.PaSndioStream, ptr %15, i32 0, i32 5
  store i32 0, ptr %16, align 4
  %17 = load ptr, ptr %4, align 8
  %18 = getelementptr inbounds nuw %struct.PaSndioStream, ptr %17, i32 0, i32 6
  store i32 1, ptr %18, align 8
  %19 = load ptr, ptr %4, align 8
  %20 = getelementptr inbounds nuw %struct.PaSndioStream, ptr %19, i32 0, i32 7
  store i64 0, ptr %20, align 8
  %21 = load ptr, ptr %4, align 8
  %22 = getelementptr inbounds nuw %struct.PaSndioStream, ptr %21, i32 0, i32 11
  store i64 0, ptr %22, align 8
  %23 = load ptr, ptr %4, align 8
  %24 = getelementptr inbounds nuw %struct.PaSndioStream, ptr %23, i32 0, i32 10
  store i64 0, ptr %24, align 8
  %25 = load ptr, ptr %4, align 8
  %26 = getelementptr inbounds nuw %struct.PaSndioStream, ptr %25, i32 0, i32 1
  call void @PaUtil_ResetBufferProcessor(ptr noundef %26)
  %27 = load ptr, ptr %4, align 8
  %28 = getelementptr inbounds nuw %struct.PaSndioStream, ptr %27, i32 0, i32 2
  %29 = load ptr, ptr %28, align 8
  %30 = call i32 @sio_start(ptr noundef %29)
  %31 = icmp ne i32 %30, 0
  br i1 %31, label %33, label %32

32:                                               ; preds = %14
  store i32 -9999, ptr %2, align 4
  br label %105

33:                                               ; preds = %14
  %34 = load ptr, ptr %4, align 8
  %35 = getelementptr inbounds nuw %struct.PaSndioStream, ptr %34, i32 0, i32 4
  %36 = load i32, ptr %35, align 8
  %37 = and i32 %36, 1
  %38 = icmp ne i32 %37, 0
  br i1 %38, label %39, label %89

39:                                               ; preds = %33
  %40 = load ptr, ptr %4, align 8
  %41 = getelementptr inbounds nuw %struct.PaSndioStream, ptr %40, i32 0, i32 3
  %42 = getelementptr inbounds nuw %struct.sio_par, ptr %41, i32 0, i32 10
  %43 = load i32, ptr %42, align 8
  %44 = load ptr, ptr %4, align 8
  %45 = getelementptr inbounds nuw %struct.PaSndioStream, ptr %44, i32 0, i32 3
  %46 = getelementptr inbounds nuw %struct.sio_par, ptr %45, i32 0, i32 6
  %47 = load i32, ptr %46, align 8
  %48 = mul i32 %43, %47
  %49 = load ptr, ptr %4, align 8
  %50 = getelementptr inbounds nuw %struct.PaSndioStream, ptr %49, i32 0, i32 3
  %51 = getelementptr inbounds nuw %struct.sio_par, ptr %50, i32 0, i32 1
  %52 = load i32, ptr %51, align 4
  %53 = mul i32 %48, %52
  store i32 %53, ptr %6, align 4
  %54 = load ptr, ptr %4, align 8
  %55 = getelementptr inbounds nuw %struct.PaSndioStream, ptr %54, i32 0, i32 9
  %56 = load ptr, ptr %55, align 8
  %57 = load i32, ptr %6, align 4
  %58 = zext i32 %57 to i64
  call void @llvm.memset.p0.i64(ptr align 1 %56, i8 0, i64 %58, i1 false)
  %59 = load ptr, ptr %4, align 8
  %60 = getelementptr inbounds nuw %struct.PaSndioStream, ptr %59, i32 0, i32 3
  %61 = getelementptr inbounds nuw %struct.sio_par, ptr %60, i32 0, i32 8
  %62 = load i32, ptr %61, align 8
  %63 = load ptr, ptr %4, align 8
  %64 = getelementptr inbounds nuw %struct.PaSndioStream, ptr %63, i32 0, i32 3
  %65 = getelementptr inbounds nuw %struct.sio_par, ptr %64, i32 0, i32 10
  %66 = load i32, ptr %65, align 8
  %67 = udiv i32 %62, %66
  store i32 %67, ptr %5, align 4
  br label %68

68:                                               ; preds = %85, %39
  %69 = load i32, ptr %5, align 4
  %70 = icmp ugt i32 %69, 0
  br i1 %70, label %71, label %88

71:                                               ; preds = %68
  %72 = load ptr, ptr %4, align 8
  %73 = getelementptr inbounds nuw %struct.PaSndioStream, ptr %72, i32 0, i32 2
  %74 = load ptr, ptr %73, align 8
  %75 = load ptr, ptr %4, align 8
  %76 = getelementptr inbounds nuw %struct.PaSndioStream, ptr %75, i32 0, i32 9
  %77 = load ptr, ptr %76, align 8
  %78 = load i32, ptr %6, align 4
  %79 = zext i32 %78 to i64
  %80 = call i64 @sio_write(ptr noundef %74, ptr noundef %77, i64 noundef %79)
  %81 = load ptr, ptr %4, align 8
  %82 = getelementptr inbounds nuw %struct.PaSndioStream, ptr %81, i32 0, i32 11
  %83 = load i64, ptr %82, align 8
  %84 = add i64 %83, %80
  store i64 %84, ptr %82, align 8
  br label %85

85:                                               ; preds = %71
  %86 = load i32, ptr %5, align 4
  %87 = add i32 %86, -1
  store i32 %87, ptr %5, align 4
  br label %68, !llvm.loop !6

88:                                               ; preds = %68
  br label %89

89:                                               ; preds = %88, %33
  %90 = load ptr, ptr %4, align 8
  %91 = getelementptr inbounds nuw %struct.PaSndioStream, ptr %90, i32 0, i32 0
  %92 = getelementptr inbounds nuw %struct.PaUtilStreamRepresentation, ptr %91, i32 0, i32 3
  %93 = load ptr, ptr %92, align 8
  %94 = icmp ne ptr %93, null
  br i1 %94, label %95, label %104

95:                                               ; preds = %89
  %96 = load ptr, ptr %4, align 8
  %97 = getelementptr inbounds nuw %struct.PaSndioStream, ptr %96, i32 0, i32 12
  %98 = load ptr, ptr %4, align 8
  %99 = call i32 @pthread_create(ptr noundef %97, ptr noundef null, ptr noundef @sndioThread, ptr noundef %98) #8
  store i32 %99, ptr %7, align 4
  %100 = load i32, ptr %7, align 4
  %101 = icmp ne i32 %100, 0
  br i1 %101, label %102, label %103

102:                                              ; preds = %95
  store i32 -9999, ptr %2, align 4
  br label %105

103:                                              ; preds = %95
  br label %104

104:                                              ; preds = %103, %89
  store i32 0, ptr %2, align 4
  br label %105

105:                                              ; preds = %104, %102, %32, %13
  %106 = load i32, ptr %2, align 4
  ret i32 %106
}