; Function Attrs: nounwind uwtable
define internal range(i32 -9999, 1) i32 @StartStream(ptr noundef %0) #0 {
  %2 = getelementptr inbounds nuw i8, ptr %0, i64 460
  %3 = load i32, ptr %2, align 4
  %.not = icmp eq i32 %3, 0
  br i1 %.not, label %45, label %4

4:                                                ; preds = %1
  store i32 0, ptr %2, align 4
  %5 = getelementptr inbounds nuw i8, ptr %0, i64 464
  store i32 1, ptr %5, align 8
  %6 = getelementptr inbounds nuw i8, ptr %0, i64 472
  store i64 0, ptr %6, align 8
  %7 = getelementptr inbounds nuw i8, ptr %0, i64 504
  %8 = getelementptr inbounds nuw i8, ptr %0, i64 496
  %9 = getelementptr inbounds nuw i8, ptr %0, i64 80
  tail call void @llvm.memset.p0.i64(ptr noundef nonnull align 8 dereferenceable(16) %8, i8 0, i64 16, i1 false)
  tail call void @PaUtil_ResetBufferProcessor(ptr noundef nonnull %9) #16
  %10 = getelementptr inbounds nuw i8, ptr %0, i64 384
  %11 = load ptr, ptr %10, align 8
  %12 = tail call i32 @sio_start(ptr noundef %11) #16
  %.not28 = icmp eq i32 %12, 0
  br i1 %.not28, label %45, label %13

13:                                               ; preds = %4
  %14 = getelementptr inbounds nuw i8, ptr %0, i64 456
  %15 = load i32, ptr %14, align 8
  %16 = and i32 %15, 1
  %.not29 = icmp eq i32 %16, 0
  br i1 %.not29, label %.loopexit, label %17

17:                                               ; preds = %13
  %18 = getelementptr inbounds i8, ptr %0, i64 432
  %19 = load i32, ptr %18, align 8
  %20 = getelementptr inbounds i8, ptr %0, i64 416
  %21 = load i32, ptr %20, align 8
  %22 = mul i32 %21, %19
  %23 = getelementptr inbounds i8, ptr %0, i64 396
  %24 = load i32, ptr %23, align 4
  %25 = mul i32 %22, %24
  %26 = getelementptr inbounds nuw i8, ptr %0, i64 488
  %27 = load ptr, ptr %26, align 8
  %28 = zext i32 %25 to i64
  tail call void @llvm.memset.p0.i64(ptr align 1 %27, i8 0, i64 %28, i1 false)
  %29 = getelementptr inbounds i8, ptr %0, i64 424
  %30 = load i32, ptr %29, align 8
  %31 = load i32, ptr %18, align 8
  %.not3033 = icmp ugt i32 %31, %30
  br i1 %.not3033, label %.loopexit, label %.lr.ph.preheader

.lr.ph.preheader:                                 ; preds = %17
  %32 = udiv i32 %30, %31
  br label %.lr.ph

.lr.ph:                                           ; preds = %.lr.ph.preheader, %.lr.ph
  %.02734 = phi i32 [ %38, %.lr.ph ], [ %32, %.lr.ph.preheader ]
  %33 = load ptr, ptr %10, align 8
  %34 = load ptr, ptr %26, align 8
  %35 = tail call i64 @sio_write(ptr noundef %33, ptr noundef %34, i64 noundef %28) #16
  %36 = load i64, ptr %7, align 8
  %37 = add i64 %36, %35
  store i64 %37, ptr %7, align 8
  %38 = add i32 %.02734, -1
  %.not30 = icmp eq i32 %38, 0
  br i1 %.not30, label %.loopexit, label %.lr.ph, !llvm.loop !6

.loopexit:                                        ; preds = %.lr.ph, %17, %13
  %39 = getelementptr inbounds nuw i8, ptr %0, i64 24
  %40 = load ptr, ptr %39, align 8
  %.not31 = icmp eq ptr %40, null
  br i1 %.not31, label %44, label %41

41:                                               ; preds = %.loopexit
  %42 = getelementptr inbounds nuw i8, ptr %0, i64 512
  %43 = tail call i32 @pthread_create(ptr noundef nonnull %42, ptr noundef null, ptr noundef nonnull @sndioThread, ptr noundef nonnull %0) #16
  %.not32 = icmp eq i32 %43, 0
  br i1 %.not32, label %44, label %45

44:                                               ; preds = %41, %.loopexit
  br label %45

45:                                               ; preds = %41, %4, %1, %44
  %.0 = phi i32 [ 0, %44 ], [ 0, %1 ], [ -9999, %4 ], [ -9999, %41 ]
  ret i32 %.0
}